target datalayout = "e-m:e-p270:32:32-p271:32:32-p272:64:64-i64:64-i128:128-f80:128-n8:16:32:64-S128"
target triple = "x86_64-pc-linux-gnu"

%struct.gmac_data_st = type { ptr, ptr, %struct.PROV_CIPHER }
%struct.PROV_CIPHER = type { ptr, ptr, ptr }

; Function Attrs: nounwind uwtable
define internal i32 @gmac_update(ptr noundef %0, ptr noundef %1, i64 noundef %2) #0 {
  %4 = alloca i32, align 4
  %5 = alloca ptr, align 8
  %6 = alloca ptr, align 8
  %7 = alloca i64, align 8
  %8 = alloca ptr, align 8
  %9 = alloca ptr, align 8
  %10 = alloca i32, align 4
  %11 = alloca i32, align 4
  store ptr %0, ptr %5, align 8, !tbaa !3
  store ptr %1, ptr %6, align 8, !tbaa !16
  store i64 %2, ptr %7, align 8, !tbaa !18
  call void @llvm.lifetime.start.p0(i64 8, ptr %8) #6
  %12 = load ptr, ptr %5, align 8, !tbaa !3
  store ptr %12, ptr %8, align 8, !tbaa !7
  call void @llvm.lifetime.start.p0(i64 8, ptr %9) #6
  %13 = load ptr, ptr %8, align 8, !tbaa !7
  %14 = getelementptr inbounds nuw %struct.gmac_data_st, ptr %13, i32 0, i32 1
  %15 = load ptr, ptr %14, align 8, !tbaa !9
  store ptr %15, ptr %9, align 8, !tbaa !22
  call void @llvm.lifetime.start.p0(i64 4, ptr %10) #6
  %16 = load i64, ptr %7, align 8, !tbaa !18
  %17 = icmp eq i64 %16, 0
  br i1 %17, label %18, label %19

18:                                               ; preds = %3
  store i32 1, ptr %4, align 4
  store i32 1, ptr %11, align 4
  br label %40

19:                                               ; preds = %3
  br label %20

20:                                               ; preds = %29, %19
  %21 = load i64, ptr %7, align 8, !tbaa !18
  %22 = icmp ugt i64 %21, 2147483647
  br i1 %22, label %23, label %34

23:                                               ; preds = %20
  %24 = load ptr, ptr %9, align 8, !tbaa !22
  %25 = load ptr, ptr %6, align 8, !tbaa !16
  %26 = call i32 @EVP_EncryptUpdate(ptr noundef %24, ptr noundef null, ptr noundef %10, ptr noundef %25, i32 noundef 2147483647)
  %27 = icmp ne i32 %26, 0
  br i1 %27, label %29, label %28

28:                                               ; preds = %23
  store i32 0, ptr %4, align 4
  store i32 1, ptr %11, align 4
  br label %40

29:                                               ; preds = %23
  %30 = load ptr, ptr %6, align 8, !tbaa !16
  %31 = getelementptr inbounds i8, ptr %30, i64 2147483647
  store ptr %31, ptr %6, align 8, !tbaa !16
  %32 = load i64, ptr %7, align 8, !tbaa !18
  %33 = sub i64 %32, 2147483647
  store i64 %33, ptr %7, align 8, !tbaa !18
  br label %20, !llvm.loop !23

34:                                               ; preds = %20
  %35 = load ptr, ptr %9, align 8, !tbaa !22
  %36 = load ptr, ptr %6, align 8, !tbaa !16
  %37 = load i64, ptr %7, align 8, !tbaa !18
  %38 = trunc i64 %37 to i32
  %39 = call i32 @EVP_EncryptUpdate(ptr noundef %35, ptr noundef null, ptr noundef %10, ptr noundef %36, i32 noundef %38)
  store i32 %39, ptr %4, align 4
  store i32 1, ptr %11, align 4
  br label %40

40:                                               ; preds = %34, %28, %18
  call void @llvm.lifetime.end.p0(i64 4, ptr %10) #6
  call void @llvm.lifetime.end.p0(i64 8, ptr %9) #6
  call void @llvm.lifetime.end.p0(i64 8, ptr %8) #6
  %41 = load i32, ptr %4, align 4
  ret i32 %41
}