; Function Attrs: nounwind uwtable
define internal i32 @gmac_update(ptr noundef readonly captures(none) %0, ptr noundef %1, i64 noundef %2) #0 {
  %4 = alloca i32, align 4
  %5 = getelementptr inbounds nuw i8, ptr %0, i64 8
  %6 = load ptr, ptr %5, align 8, !tbaa !3
  call void @llvm.lifetime.start.p0(i64 4, ptr nonnull %4) #5
  %7 = icmp eq i64 %2, 0
  br i1 %7, label %.loopexit, label %.preheader

.preheader:                                       ; preds = %3
  %8 = icmp ugt i64 %2, 2147483647
  br i1 %8, label %.lr.ph, label %._crit_edge

.lr.ph:                                           ; preds = %.preheader, %10
  %.01117 = phi ptr [ %11, %10 ], [ %1, %.preheader ]
  %.01216 = phi i64 [ %12, %10 ], [ %2, %.preheader ]
  %9 = call i32 @EVP_EncryptUpdate(ptr noundef %6, ptr noundef null, ptr noundef nonnull %4, ptr noundef %.01117, i32 noundef 2147483647) #5
  %.not = icmp eq i32 %9, 0
  br i1 %.not, label %.loopexit, label %10

10:                                               ; preds = %.lr.ph
  %11 = getelementptr inbounds nuw i8, ptr %.01117, i64 2147483647
  %12 = add i64 %.01216, -2147483647
  %13 = icmp ugt i64 %12, 2147483647
  br i1 %13, label %.lr.ph, label %._crit_edge, !llvm.loop !13

._crit_edge:                                      ; preds = %10, %.preheader
  %.012.lcssa = phi i64 [ %2, %.preheader ], [ %12, %10 ]
  %.011.lcssa = phi ptr [ %1, %.preheader ], [ %11, %10 ]
  %14 = trunc nuw nsw i64 %.012.lcssa to i32
  %15 = call i32 @EVP_EncryptUpdate(ptr noundef %6, ptr noundef null, ptr noundef nonnull %4, ptr noundef %.011.lcssa, i32 noundef %14) #5
  br label %.loopexit

.loopexit:                                        ; preds = %.lr.ph, %3, %._crit_edge
  %.0 = phi i32 [ %15, %._crit_edge ], [ 1, %3 ], [ 0, %.lr.ph ]
  call void @llvm.lifetime.end.p0(i64 4, ptr nonnull %4) #5
  ret i32 %.0
}